(dp0
S'cookies'
p1
(dp2
S'wxloadtime'
p3
S'1502951427'
p4
sS'webwx_data_ticket'
p5
S'gSdPEPDe4tfsHlNkGoTj+BD0'
p6
sS'wxuin'
p7
S'3471819240'
p8
sS'login_frequency'
p9
S'2'
p10
sS'MM_WX_NOTIFY_STATE'
p11
S'1'
p12
sS'MM_WX_SOUND_STATE'
p13
g12
sS'webwx_auth_ticket'
p14
S'CIsBEM2CiJYHGoABfuC438yyGKkpvc8km99+8uaKDREHpbOdn+wFd3HbL/Gk6jPwPdDG5BYyzwsXRVEuPaAC6WEuwWnpV7E5vUTS13OAZQGIkkYxAiqV1HPAaQSM6lHkGXV6oUSh+ZuZ3GjF51nEwkIvHK1zRSyGpwKwNyjCtOOCAo5BratthoocNiU='
p15
sS'last_wxuin'
p16
S'3471819240'
p17
sS'webwxuvid'
p18
S'3248c9a9375df6ab678aa62c1d4f3da8a223acc80419e6626111abcef36997a85e89f1afd6d67b050630dbf6d5979e75'
p19
sS'wxpluginkey'
p20
S'1502773671'
p21
sS'wxsid'
p22
S'Uy0//ZjVZm1RyoSJ'
p23
sS'mm_lang'
p24
S'zh_CN'
p25
ssS'version'
p26
S'1.2.32'
p27
sS'storage'
p28
(dp29
S'userName'
p30
V@9a35e0d194cd599edcc93623cb9e4fd68bfa5e75109543dfa1d8642acc7793ff
p31
sS'lastInputUserName'
p32
NsS'memberList'
p33
(lp34
(dp35
S'UserName'
p36
g31
sS'City'
p37
S''
p38
sS'DisplayName'
p39
g38
sS'UniFriend'
p40
I0
sS'MemberList'
p41
(lp42
sS'PYQuanPin'
p43
V
p44
sS'RemarkPYInitial'
p45
g44
sS'Sex'
p46
I1
sS'AppAccountFlag'
p47
I0
sS'VerifyFlag'
p48
I0
sS'Province'
p49
g38
sS'KeyWord'
p50
g38
sS'RemarkName'
p51
g44
sS'PYInitial'
p52
g44
sS'ChatRoomId'
p53
I0
sS'HideInputBarFlag'
p54
I0
sVHeadImgFlag
p55
I1
sS'EncryChatRoomId'
p56
g38
sS'AttrStatus'
p57
I0
sVWebWxPluginSwitch
p58
I0
sS'SnsFlag'
p59
I0
sS'MemberCount'
p60
I0
sS'OwnerUin'
p61
I0
sS'Alias'
p62
g38
sS'Signature'
p63
V18912662298
p64
sS'ContactFlag'
p65
I0
sS'NickName'
p66
V\u5b9d\u5c71DC
p67
sS'RemarkPYQuanPin'
p68
g44
sS'HeadImgUrl'
p69
V/cgi-bin/mmwebwx-bin/webwxgeticon?seq=102687708&username=@9a35e0d194cd599edcc93623cb9e4fd68bfa5e75109543dfa1d8642acc7793ff&skey=@crypt_d1d86569_6cc012e161a17efcbd167a529f87646f
p70
sS'Uin'
p71
I3471819240
sS'StarFriend'
p72
I0
sS'Statues'
p73
I0
sa(dp74
VUserName
p75
V@367283e09278b6d0e632ef9c8b2dc5d1
p76
sVCity
p77
g44
sVDisplayName
p78
g44
sVUniFriend
p79
I0
sVMemberList
p80
(lp81
sVPYQuanPin
p82
Vxinghai
p83
sVRemarkPYInitial
p84
g44
sVUin
p85
I0
sVAppAccountFlag
p86
I0
sVVerifyFlag
p87
I0
sVProvince
p88
V\u4e0a\u6d77
p89
sVKeyWord
p90
Vhui
p91
sVRemarkName
p92
g44
sVPYInitial
p93
VXH
p94
sVChatRoomId
p95
I0
sVIsOwner
p96
I0
sVHideInputBarFlag
p97
I0
sVEncryChatRoomId
p98
g44
sVAttrStatus
p99
I16863399
sVSnsFlag
p100
I17
sVMemberCount
p101
I0
sVOwnerUin
p102
I0
sVAlias
p103
g44
sVSignature
p104
V\u6d41\u5e74\u4e0d\u8d1f\uff0c\u65f6\u5149\u4e0d\u6094\uff0c\u613f\u5fae\u7b11\u4f9d\u65e7\u707f\u70c2\u3002
p105
sVContactFlag
p106
I3
sVNickName
p107
V\u661f\u306e\u6d77
p108
sVRemarkPYQuanPin
p109
g44
sVHeadImgUrl
p110
V/cgi-bin/mmwebwx-bin/webwxgeticon?seq=601080224&username=@367283e09278b6d0e632ef9c8b2dc5d1&skey=@crypt_d1d86569_6cc012e161a17efcbd167a529f87646f
p111
sVSex
p112
I1
sVStarFriend
p113
I0
sVStatues
p114
I0
sasS'chatroomList'
p115
(lp116
(dp117
VUserName
p118
V@@af323bd7ecd0cd23dc2e51d6b8b77cd88cbcf3dcafff4e40609cc96a5c6435eb
p119
sVCity
p120
g44
sVDisplayName
p121
g44
sVUniFriend
p122
I0
sS'self'
p123
(dp124
g36
g31
sg37
g38
sg39
g38
sg40
I0
sg61
I0
sg41
(lp125
sg43
g44
sg45
g44
sg71
I3471819240
sg47
I0
sg48
I0
sg49
g38
sg50
g38
sg51
g44
sg52
g44
sg53
I0
sg54
I0
sg55
I1
sg56
g38
sg57
I0
sg59
I0
sg60
I0
sg58
I0
sg62
g38
sg63
g64
sg65
I0
sg66
g67
sg68
g44
sg69
g70
sg46
I1
sg72
I0
sg73
I0
ssVMemberList
p126
(lp127
sVPYQuanPin
p128
Vzabbixweixinbaojingceshi
p129
sVRemarkPYInitial
p130
g44
sVSex
p131
I0
sVAppAccountFlag
p132
I0
sVVerifyFlag
p133
I0
sVProvince
p134
g44
sVKeyWord
p135
g44
sVRemarkName
p136
g44
sVPYInitial
p137
VZABBIXWXBJCS
p138
sVIsOwner
p139
I0
sVChatRoomId
p140
I0
sVHideInputBarFlag
p141
I0
sVEncryChatRoomId
p142
g44
sVAttrStatus
p143
I0
sVSnsFlag
p144
I0
sVMemberCount
p145
I4
sVOwnerUin
p146
I0
sVAlias
p147
g44
sVSignature
p148
g44
sVContactFlag
p149
I3
sVNickName
p150
Vzabbix\u5fae\u4fe1\u62a5\u8b66\u6d4b\u8bd5
p151
sVRemarkPYQuanPin
p152
g44
sVHeadImgUrl
p153
V/cgi-bin/mmwebwx-bin/webwxgetheadimg?seq=601080234&username=@@af323bd7ecd0cd23dc2e51d6b8b77cd88cbcf3dcafff4e40609cc96a5c6435eb&skey=@crypt_d1d86569_6cc012e161a17efcbd167a529f87646f
p154
sVUin
p155
I0
sVStarFriend
p156
I0
sVStatues
p157
I1
sS'isAdmin'
p158
NsasS'nickName'
p159
g67
sS'mpList'
p160
(lp161
ssS'loginInfo'
p162
(dp163
S'SyncKey'
p164
(dp165
VCount
p166
I4
sVList
p167
(lp168
(dp169
VVal
p170
I601080362
sVKey
p171
I1
sa(dp172
VVal
p173
I601080386
sVKey
p174
I2
sa(dp175
VVal
p176
I601080314
sVKey
p177
I3
sa(dp178
VVal
p179
I1502931421
sVKey
p180
I1000
sassS'syncUrl'
p181
S'https://webpush.wx2.qq.com/cgi-bin/mmwebwx-bin'
p182
sS'skey'
p183
V@crypt_d1d86569_6cc012e161a17efcbd167a529f87646f
p184
sS'wxuin'
p185
V3471819240
p186
sS'synckey'
p187
S'1_601080362|2_601080386|3_601080314|1000_1502931421'
p188
sS'url'
p189
Vhttps://wx2.qq.com/cgi-bin/mmwebwx-bin
p190
sS'pass_ticket'
p191
Vardvj0FSU3tjY6%2Fn33dOxF2IqaXj22sQqkmVZxwLT1wlIfmDjUvhiTTJgM7VXI4Q
p192
sS'wxsid'
p193
VUy0//ZjVZm1RyoSJ
p194
sS'User'
p195
g35
sS'InviteStartCount'
p196
I40
sS'fileUrl'
p197
S'https://file.wx2.qq.com/cgi-bin/mmwebwx-bin'
p198
sS'BaseRequest'
p199
(dp200
g71
g186
sS'Skey'
p201
g184
sS'DeviceID'
p202
g192
sS'Sid'
p203
g194
ssS'deviceid'
p204
S'e099806940652725'
p205
ss.