(dp0
S'cookies'
p1
(dp2
S'wxloadtime'
p3
S'1503377598'
p4
sS'webwx_data_ticket'
p5
S'gSfVtMnnbqHPHtryH2xwCDPv'
p6
sS'wxuin'
p7
S'417973546'
p8
sS'login_frequency'
p9
S'2'
p10
sS'MM_WX_NOTIFY_STATE'
p11
S'1'
p12
sS'MM_WX_SOUND_STATE'
p13
g12
sS'webwx_auth_ticket'
p14
S'CIsBEJ6GnAcagAG7pf4Hrzjrg5t0q/s4QEkWcFdEjIKXVevmz2X2t+U4HeitP2FDC4SzXn/kdNSBzED+ILLXXJ9HFS6FVaZDG8iDnjM3TpKU1sqhRfTVs20AcApS25UShmvoJBl7yXX21iYPjZEXciKEG3gcVpcJHrjca2W5JTWImB6rD3VPpZfCvw=='
p15
sS'last_wxuin'
p16
S'417973546'
p17
sS'webwxuvid'
p18
S'3248c9a9375df6ab678aa62c1d4f3da8a223acc80419e6626111abcef36997a85e89f1afd6d67b050630dbf6d5979e75'
p19
sS'wxpluginkey'
p20
S'1503376922_expired'
p21
sS'wxsid'
p22
S'6IBBL1IpuHh4uL17'
p23
sS'mm_lang'
p24
S'zh_CN'
p25
ssS'version'
p26
S'1.2.32'
p27
sS'storage'
p28
(dp29
S'userName'
p30
V@155acf011389c85bf6704ccd96faaff2ae3c302e12430a5dfeb259bf91dd8f03
p31
sS'lastInputUserName'
p32
NsS'memberList'
p33
(lp34
(dp35
S'UserName'
p36
g31
sS'City'
p37
S''
p38
sS'DisplayName'
p39
g38
sS'UniFriend'
p40
I0
sS'MemberList'
p41
(lp42
sS'PYQuanPin'
p43
V
p44
sS'RemarkPYInitial'
p45
g44
sS'Sex'
p46
I0
sS'AppAccountFlag'
p47
I0
sS'VerifyFlag'
p48
I0
sS'Province'
p49
g38
sS'KeyWord'
p50
g38
sS'RemarkName'
p51
g44
sS'PYInitial'
p52
g44
sS'ChatRoomId'
p53
I0
sS'HideInputBarFlag'
p54
I0
sVHeadImgFlag
p55
I1
sS'EncryChatRoomId'
p56
g38
sS'AttrStatus'
p57
I0
sVWebWxPluginSwitch
p58
I0
sS'SnsFlag'
p59
I0
sS'MemberCount'
p60
I0
sS'OwnerUin'
p61
I0
sS'Alias'
p62
g38
sS'Signature'
p63
g44
sS'ContactFlag'
p64
I0
sS'NickName'
p65
Vzabbix\u81ea\u52a8\u62a5\u8b66
p66
sS'RemarkPYQuanPin'
p67
g44
sS'HeadImgUrl'
p68
V/cgi-bin/mmwebwx-bin/webwxgeticon?seq=1646611551&username=@155acf011389c85bf6704ccd96faaff2ae3c302e12430a5dfeb259bf91dd8f03&skey=@crypt_35ad69e6_211fcd3d980c458caf605d408aa1745f
p69
sS'Uin'
p70
I417973546
sS'StarFriend'
p71
I0
sS'Statues'
p72
I0
sa(dp73
VUserName
p74
V@ff957e71e04096af284f1297f721771b4c63a8073b6c5ba01fbc4c41a2c3eef5
p75
sVCity
p76
V\u82cf\u5dde
p77
sVDisplayName
p78
g44
sVUniFriend
p79
I0
sVMemberList
p80
(lp81
sVPYQuanPin
p82
VJacob
p83
sVRemarkPYInitial
p84
g44
sVUin
p85
I0
sVAppAccountFlag
p86
I0
sVVerifyFlag
p87
I0
sVProvince
p88
V\u6c5f\u82cf
p89
sVKeyWord
p90
g44
sVRemarkName
p91
g44
sVPYInitial
p92
VJACOB
p93
sVChatRoomId
p94
I0
sVIsOwner
p95
I0
sVHideInputBarFlag
p96
I0
sVEncryChatRoomId
p97
g44
sVAttrStatus
p98
I135205
sVSnsFlag
p99
I17
sVMemberCount
p100
I0
sVOwnerUin
p101
I0
sVAlias
p102
g44
sVSignature
p103
g44
sVContactFlag
p104
I3
sVNickName
p105
VJacob
p106
sVRemarkPYQuanPin
p107
g44
sVHeadImgUrl
p108
V/cgi-bin/mmwebwx-bin/webwxgeticon?seq=653370042&username=@ff957e71e04096af284f1297f721771b4c63a8073b6c5ba01fbc4c41a2c3eef5&skey=@crypt_35ad69e6_211fcd3d980c458caf605d408aa1745f
p109
sVSex
p110
I1
sVStarFriend
p111
I0
sVStatues
p112
I0
sasS'chatroomList'
p113
(lp114
(dp115
VUserName
p116
V@@77e26c4f009f1df786b614c15a1e17aa81093b31f9d1c3f226ec37796ad6f8e5
p117
sVCity
p118
g44
sVDisplayName
p119
g44
sVUniFriend
p120
I0
sS'self'
p121
(dp122
g36
g31
sg37
g38
sg39
g38
sg40
I0
sg61
I0
sg41
(lp123
sg43
g44
sg45
g44
sg70
I417973546
sg47
I0
sg48
I0
sg49
g38
sg50
g38
sg51
g44
sg52
g44
sg53
I0
sg54
I0
sg55
I1
sg56
g38
sg57
I0
sg59
I0
sg60
I0
sg58
I0
sg62
g38
sg63
g44
sg64
I0
sg65
g66
sg67
g44
sg68
g69
sg46
I0
sg71
I0
sg72
I0
ssVMemberList
p124
(lp125
sVPYQuanPin
p126
VKraftzabbixweixinzidongbaojingceshi
p127
sVRemarkPYInitial
p128
g44
sVSex
p129
I0
sVAppAccountFlag
p130
I0
sVVerifyFlag
p131
I0
sVProvince
p132
g44
sVKeyWord
p133
g44
sVRemarkName
p134
g44
sVPYInitial
p135
VKRAFTZABBIXWXZDBJCS
p136
sVIsOwner
p137
I0
sVChatRoomId
p138
I0
sVHideInputBarFlag
p139
I0
sVEncryChatRoomId
p140
g44
sVAttrStatus
p141
I0
sVSnsFlag
p142
I0
sVMemberCount
p143
I5
sVOwnerUin
p144
I0
sVAlias
p145
g44
sVSignature
p146
g44
sVContactFlag
p147
I3
sVNickName
p148
VKraft zabbix\u5fae\u4fe1\u81ea\u52a8\u62a5\u8b66\u6d4b\u8bd5
p149
sVRemarkPYQuanPin
p150
g44
sVHeadImgUrl
p151
V/cgi-bin/mmwebwx-bin/webwxgetheadimg?seq=653370068&username=@@77e26c4f009f1df786b614c15a1e17aa81093b31f9d1c3f226ec37796ad6f8e5&skey=@crypt_35ad69e6_211fcd3d980c458caf605d408aa1745f
p152
sVUin
p153
I0
sVStarFriend
p154
I0
sVStatues
p155
I1
sS'isAdmin'
p156
NsasS'nickName'
p157
g66
sS'mpList'
p158
(lp159
ssS'loginInfo'
p160
(dp161
S'SyncKey'
p162
(dp163
VCount
p164
I4
sVList
p165
(lp166
(dp167
VVal
p168
I653370034
sVKey
p169
I1
sa(dp170
VVal
p171
I653370072
sVKey
p172
I2
sa(dp173
VVal
p174
I653370070
sVKey
p175
I3
sa(dp176
VVal
p177
I1503376922
sVKey
p178
I1000
sassS'syncUrl'
p179
S'https://webpush.wx2.qq.com/cgi-bin/mmwebwx-bin'
p180
sS'skey'
p181
V@crypt_35ad69e6_211fcd3d980c458caf605d408aa1745f
p182
sS'wxuin'
p183
V417973546
p184
sS'synckey'
p185
S'1_653370034|2_653370072|3_653370070|1000_1503376922'
p186
sS'url'
p187
Vhttps://wx2.qq.com/cgi-bin/mmwebwx-bin
p188
sS'pass_ticket'
p189
VHp2roZGONJ0J2mEGDhqJ54DjoFmoOGXAyV7M4LUQIPY5kMDFg98Y%2BUGExfOthe4O
p190
sS'deviceid'
p191
S'e255349163693340'
p192
sS'wxsid'
p193
V6IBBL1IpuHh4uL17
p194
sS'InviteStartCount'
p195
I40
sS'fileUrl'
p196
S'https://file.wx2.qq.com/cgi-bin/mmwebwx-bin'
p197
sS'BaseRequest'
p198
(dp199
g70
g184
sS'Skey'
p200
g182
sS'DeviceID'
p201
g190
sS'Sid'
p202
g194
ssS'User'
p203
g35
ss.